; Function Attrs: mustprogress nounwind uwtable
define dso_local noundef zeroext i1 @_ZNK5clang12FunctionDecl14hasTrivialBodyEv(ptr noundef nonnull align 8 dereferenceable(168) %0) local_unnamed_addr #2 align 2 {
  %2 = load ptr, ptr %0, align 8
  %3 = getelementptr inbounds i8, ptr %2, i64 64
  %4 = load ptr, ptr %3, align 8
  %5 = tail call noundef ptr %4(ptr noundef nonnull align 8 dereferenceable(168) %0) #27
  %.not = icmp eq ptr %5, null
  br i1 %.not, label %14, label %6

6:                                                ; preds = %1
  %7 = load i8, ptr %5, align 8
  %8 = icmp eq i8 %7, -21
  br i1 %8, label %9, label %13

9:                                                ; preds = %6
  %10 = getelementptr inbounds nuw i8, ptr %5, i64 4
  %11 = load i32, ptr %10, align 4
  %12 = icmp eq i32 %11, 0
  br i1 %12, label %14, label %13

13:                                               ; preds = %9, %6
  br label %14

14:                                               ; preds = %9, %1, %13
  %.0 = phi i1 [ false, %13 ], [ false, %1 ], [ true, %9 ]
  ret i1 %.0
}